target datalayout = "e-m:e-p270:32:32-p271:32:32-p272:64:64-i64:64-i128:128-f80:128-n8:16:32:64-S128"
target triple = "x86_64-pc-linux-gnu"

%struct.AVFilterContext = type { ptr, ptr, ptr, ptr, ptr, i32, ptr, ptr, i32, ptr, ptr, i32, i32, ptr, ptr, ptr, ptr, i32, ptr, i32, i32 }
%struct.FilterLink = type { %struct.AVFilterLink, ptr, i64, i64, i32, i32, i64, i64, i64, i64, %struct.AVRational, ptr }
%struct.AVFilterLink = type { ptr, ptr, ptr, ptr, i32, i32, i32, i32, %struct.AVRational, i32, i32, i32, %struct.AVChannelLayout, %struct.AVRational, ptr, i32, %struct.AVFilterFormatsConfig, %struct.AVFilterFormatsConfig }
%struct.AVChannelLayout = type { i32, i32, %union.anon.1, ptr }
%union.anon.1 = type { i64 }
%struct.AVFilterFormatsConfig = type { ptr, ptr, ptr, ptr, ptr }
%struct.AVRational = type { i32, i32 }

@.str.5 = private unnamed_addr constant [50 x i8] c"Input frame sizes do not match (%dx%d vs %dx%d).\0A\00", align 1

; Function Attrs: inlinehint nounwind uwtable
define internal ptr @ff_filter_link(ptr noundef %0) #3 {
  %2 = alloca ptr, align 8
  store ptr %0, ptr %2, align 8, !tbaa !25
  %3 = load ptr, ptr %2, align 8, !tbaa !25
  ret ptr %3
}

; Function Attrs: nounwind uwtable
define internal i32 @config_output(ptr noundef %0) #1 {
  %2 = alloca i32, align 4
  %3 = alloca ptr, align 8
  %4 = alloca ptr, align 8
  %5 = alloca ptr, align 8
  %6 = alloca ptr, align 8
  %7 = alloca ptr, align 8
  %8 = alloca ptr, align 8
  %9 = alloca i32, align 4
  store ptr %0, ptr %3, align 8, !tbaa !25
  call void @llvm.lifetime.start.p0(i64 8, ptr %4) #6
  %10 = load ptr, ptr %3, align 8, !tbaa !25
  %11 = getelementptr inbounds nuw %struct.AVFilterLink, ptr %10, i32 0, i32 0
  %12 = load ptr, ptr %11, align 8, !tbaa !57
  store ptr %12, ptr %4, align 8, !tbaa !4
  call void @llvm.lifetime.start.p0(i64 8, ptr %5) #6
  %13 = load ptr, ptr %4, align 8, !tbaa !4
  %14 = getelementptr inbounds nuw %struct.AVFilterContext, ptr %13, i32 0, i32 4
  %15 = load ptr, ptr %14, align 8, !tbaa !24
  %16 = getelementptr inbounds ptr, ptr %15, i64 0
  %17 = load ptr, ptr %16, align 8, !tbaa !25
  store ptr %17, ptr %5, align 8, !tbaa !25
  call void @llvm.lifetime.start.p0(i64 8, ptr %6) #6
  %18 = load ptr, ptr %4, align 8, !tbaa !4
  %19 = getelementptr inbounds nuw %struct.AVFilterContext, ptr %18, i32 0, i32 4
  %20 = load ptr, ptr %19, align 8, !tbaa !24
  %21 = getelementptr inbounds ptr, ptr %20, i64 1
  %22 = load ptr, ptr %21, align 8, !tbaa !25
  store ptr %22, ptr %6, align 8, !tbaa !25
  call void @llvm.lifetime.start.p0(i64 8, ptr %7) #6
  %23 = load ptr, ptr %5, align 8, !tbaa !25
  %24 = call ptr @ff_filter_link(ptr noundef %23)
  store ptr %24, ptr %7, align 8, !tbaa !27
  call void @llvm.lifetime.start.p0(i64 8, ptr %8) #6
  %25 = load ptr, ptr %3, align 8, !tbaa !25
  %26 = call ptr @ff_filter_link(ptr noundef %25)
  store ptr %26, ptr %8, align 8, !tbaa !27
  %27 = load ptr, ptr %5, align 8, !tbaa !25
  %28 = getelementptr inbounds nuw %struct.AVFilterLink, ptr %27, i32 0, i32 6
  %29 = load i32, ptr %28, align 8, !tbaa !58
  %30 = load ptr, ptr %6, align 8, !tbaa !25
  %31 = getelementptr inbounds nuw %struct.AVFilterLink, ptr %30, i32 0, i32 6
  %32 = load i32, ptr %31, align 8, !tbaa !58
  %33 = icmp ne i32 %29, %32
  br i1 %33, label %42, label %34

34:                                               ; preds = %1
  %35 = load ptr, ptr %5, align 8, !tbaa !25
  %36 = getelementptr inbounds nuw %struct.AVFilterLink, ptr %35, i32 0, i32 7
  %37 = load i32, ptr %36, align 4, !tbaa !59
  %38 = load ptr, ptr %6, align 8, !tbaa !25
  %39 = getelementptr inbounds nuw %struct.AVFilterLink, ptr %38, i32 0, i32 7
  %40 = load i32, ptr %39, align 4, !tbaa !59
  %41 = icmp ne i32 %37, %40
  br i1 %41, label %42, label %56

42:                                               ; preds = %34, %1
  %43 = load ptr, ptr %4, align 8, !tbaa !4
  %44 = load ptr, ptr %5, align 8, !tbaa !25
  %45 = getelementptr inbounds nuw %struct.AVFilterLink, ptr %44, i32 0, i32 6
  %46 = load i32, ptr %45, align 8, !tbaa !58
  %47 = load ptr, ptr %5, align 8, !tbaa !25
  %48 = getelementptr inbounds nuw %struct.AVFilterLink, ptr %47, i32 0, i32 7
  %49 = load i32, ptr %48, align 4, !tbaa !59
  %50 = load ptr, ptr %6, align 8, !tbaa !25
  %51 = getelementptr inbounds nuw %struct.AVFilterLink, ptr %50, i32 0, i32 6
  %52 = load i32, ptr %51, align 8, !tbaa !58
  %53 = load ptr, ptr %6, align 8, !tbaa !25
  %54 = getelementptr inbounds nuw %struct.AVFilterLink, ptr %53, i32 0, i32 7
  %55 = load i32, ptr %54, align 4, !tbaa !59
  call void (ptr, i32, ptr, ...) @av_log(ptr noundef %43, i32 noundef 16, ptr noundef @.str.5, i32 noundef %46, i32 noundef %49, i32 noundef %52, i32 noundef %55)
  store i32 -22, ptr %2, align 4
  store i32 1, ptr %9, align 4
  br label %79

56:                                               ; preds = %34
  %57 = load ptr, ptr %5, align 8, !tbaa !25
  %58 = getelementptr inbounds nuw %struct.AVFilterLink, ptr %57, i32 0, i32 6
  %59 = load i32, ptr %58, align 8, !tbaa !58
  %60 = load ptr, ptr %3, align 8, !tbaa !25
  %61 = getelementptr inbounds nuw %struct.AVFilterLink, ptr %60, i32 0, i32 6
  store i32 %59, ptr %61, align 8, !tbaa !58
  %62 = load ptr, ptr %5, align 8, !tbaa !25
  %63 = getelementptr inbounds nuw %struct.AVFilterLink, ptr %62, i32 0, i32 7
  %64 = load i32, ptr %63, align 4, !tbaa !59
  %65 = load ptr, ptr %3, align 8, !tbaa !25
  %66 = getelementptr inbounds nuw %struct.AVFilterLink, ptr %65, i32 0, i32 7
  store i32 %64, ptr %66, align 4, !tbaa !59
  %67 = load ptr, ptr %3, align 8, !tbaa !25
  %68 = getelementptr inbounds nuw %struct.AVFilterLink, ptr %67, i32 0, i32 13
  %69 = load ptr, ptr %5, align 8, !tbaa !25
  %70 = getelementptr inbounds nuw %struct.AVFilterLink, ptr %69, i32 0, i32 13
  call void @llvm.memcpy.p0.p0.i64(ptr align 8 %68, ptr align 8 %70, i64 8, i1 false), !tbaa.struct !60
  %71 = load ptr, ptr %3, align 8, !tbaa !25
  %72 = getelementptr inbounds nuw %struct.AVFilterLink, ptr %71, i32 0, i32 8
  %73 = load ptr, ptr %5, align 8, !tbaa !25
  %74 = getelementptr inbounds nuw %struct.AVFilterLink, ptr %73, i32 0, i32 8
  call void @llvm.memcpy.p0.p0.i64(ptr align 8 %72, ptr align 8 %74, i64 8, i1 false), !tbaa.struct !60
  %75 = load ptr, ptr %8, align 8, !tbaa !27
  %76 = getelementptr inbounds nuw %struct.FilterLink, ptr %75, i32 0, i32 10
  %77 = load ptr, ptr %7, align 8, !tbaa !27
  %78 = getelementptr inbounds nuw %struct.FilterLink, ptr %77, i32 0, i32 10
  call void @llvm.memcpy.p0.p0.i64(ptr align 8 %76, ptr align 8 %78, i64 8, i1 false), !tbaa.struct !60
  store i32 0, ptr %2, align 4
  store i32 1, ptr %9, align 4
  br label %79

79:                                               ; preds = %56, %42
  call void @llvm.lifetime.end.p0(i64 8, ptr %8) #6
  call void @llvm.lifetime.end.p0(i64 8, ptr %7) #6
  call void @llvm.lifetime.end.p0(i64 8, ptr %6) #6
  call void @llvm.lifetime.end.p0(i64 8, ptr %5) #6
  call void @llvm.lifetime.end.p0(i64 8, ptr %4) #6
  %80 = load i32, ptr %2, align 4
  ret i32 %80
}