; Function Attrs: nounwind uwtable
define internal range(i32 -22, 1) i32 @config_output(ptr noundef captures(none) %0) #1 {
  %2 = load ptr, ptr %0, align 8, !tbaa !52
  %3 = getelementptr inbounds nuw i8, ptr %2, i64 32
  %4 = load ptr, ptr %3, align 8, !tbaa !20
  %5 = load ptr, ptr %4, align 8, !tbaa !21
  %6 = getelementptr inbounds nuw i8, ptr %4, i64 8
  %7 = load ptr, ptr %6, align 8, !tbaa !21
  %8 = getelementptr inbounds nuw i8, ptr %5, i64 40
  %9 = load i32, ptr %8, align 8, !tbaa !53
  %10 = getelementptr inbounds nuw i8, ptr %7, i64 40
  %11 = load i32, ptr %10, align 8, !tbaa !53
  %.not = icmp eq i32 %9, %11
  %12 = getelementptr inbounds nuw i8, ptr %5, i64 44
  %13 = load i32, ptr %12, align 4, !tbaa !54
  %14 = getelementptr inbounds nuw i8, ptr %7, i64 44
  %15 = load i32, ptr %14, align 4, !tbaa !54
  %.not25 = icmp eq i32 %13, %15
  %or.cond = select i1 %.not, i1 %.not25, i1 false
  br i1 %or.cond, label %16, label %._crit_edge

._crit_edge:                                      ; preds = %1
  tail call void (ptr, i32, ptr, ...) @av_log(ptr noundef nonnull %2, i32 noundef 16, ptr noundef nonnull @.str.5, i32 noundef %9, i32 noundef %13, i32 noundef %11, i32 noundef %15) #4
  br label %28

16:                                               ; preds = %1
  %17 = getelementptr inbounds nuw i8, ptr %0, i64 40
  store i32 %9, ptr %17, align 8, !tbaa !53
  %18 = getelementptr inbounds nuw i8, ptr %0, i64 44
  store i32 %13, ptr %18, align 4, !tbaa !54
  %19 = getelementptr inbounds nuw i8, ptr %0, i64 96
  %20 = getelementptr inbounds nuw i8, ptr %5, i64 96
  %21 = load i64, ptr %20, align 8
  store i64 %21, ptr %19, align 8
  %22 = getelementptr inbounds nuw i8, ptr %0, i64 48
  %23 = getelementptr inbounds nuw i8, ptr %5, i64 48
  %24 = load i64, ptr %23, align 8
  store i64 %24, ptr %22, align 8
  %25 = getelementptr inbounds nuw i8, ptr %0, i64 264
  %26 = getelementptr inbounds nuw i8, ptr %5, i64 264
  %27 = load i64, ptr %26, align 8
  store i64 %27, ptr %25, align 8
  br label %28

28:                                               ; preds = %16, %._crit_edge
  %.0 = phi i32 [ -22, %._crit_edge ], [ 0, %16 ]
  ret i32 %.0
}